target datalayout = "e-m:e-p270:32:32-p271:32:32-p272:64:64-i64:64-i128:128-f80:128-n8:16:32:64-S128"
target triple = "x86_64-unknown-linux-gnu"

%"class.QuantLib::BlackCalculator" = type { ptr, double, double, double, double, double, double, double, double, double, double, double, double, double, double, double, double, double, double }

; Function Attrs: mustprogress nounwind uwtable
define noundef double @_ZNK8QuantLib15BlackCalculator12gammaForwardEv(ptr noundef nonnull align 8 dereferenceable(152) %this) #6 align 2 {
entry:
  %this.addr = alloca ptr, align 8
  %temp = alloca double, align 8
  %DalphaDforward = alloca double, align 8
  %DbetaDforward = alloca double, align 8
  %D2alphaDforward2 = alloca double, align 8
  %D2betaDforward2 = alloca double, align 8
  %temp2 = alloca double, align 8
  store ptr %this, ptr %this.addr, align 8, !tbaa !3
  %this1 = load ptr, ptr %this.addr, align 8
  call void @llvm.lifetime.start.p0(i64 8, ptr %temp) #19
  %stdDev_ = getelementptr inbounds nuw %"class.QuantLib::BlackCalculator", ptr %this1, i32 0, i32 3
  %0 = load double, ptr %stdDev_, align 8, !tbaa !14
  %forward_ = getelementptr inbounds nuw %"class.QuantLib::BlackCalculator", ptr %this1, i32 0, i32 2
  %1 = load double, ptr %forward_, align 8, !tbaa !13
  %mul = fmul double %0, %1
  store double %mul, ptr %temp, align 8, !tbaa !9
  call void @llvm.lifetime.start.p0(i64 8, ptr %DalphaDforward) #19
  %DalphaDd1_ = getelementptr inbounds nuw %"class.QuantLib::BlackCalculator", ptr %this1, i32 0, i32 10
  %2 = load double, ptr %DalphaDd1_, align 8, !tbaa !37
  %3 = load double, ptr %temp, align 8, !tbaa !9
  %div = fdiv double %2, %3
  store double %div, ptr %DalphaDforward, align 8, !tbaa !9
  call void @llvm.lifetime.start.p0(i64 8, ptr %DbetaDforward) #19
  %DbetaDd2_ = getelementptr inbounds nuw %"class.QuantLib::BlackCalculator", ptr %this1, i32 0, i32 11
  %4 = load double, ptr %DbetaDd2_, align 8, !tbaa !39
  %5 = load double, ptr %temp, align 8, !tbaa !9
  %div2 = fdiv double %4, %5
  store double %div2, ptr %DbetaDforward, align 8, !tbaa !9
  call void @llvm.lifetime.start.p0(i64 8, ptr %D2alphaDforward2) #19
  %6 = load double, ptr %DalphaDforward, align 8, !tbaa !9
  %fneg = fneg double %6
  %forward_3 = getelementptr inbounds nuw %"class.QuantLib::BlackCalculator", ptr %this1, i32 0, i32 2
  %7 = load double, ptr %forward_3, align 8, !tbaa !13
  %div4 = fdiv double %fneg, %7
  %d1_ = getelementptr inbounds nuw %"class.QuantLib::BlackCalculator", ptr %this1, i32 0, i32 6
  %8 = load double, ptr %d1_, align 8, !tbaa !25
  %stdDev_5 = getelementptr inbounds nuw %"class.QuantLib::BlackCalculator", ptr %this1, i32 0, i32 3
  %9 = load double, ptr %stdDev_5, align 8, !tbaa !14
  %div6 = fdiv double %8, %9
  %add = fadd double 1.000000e+00, %div6
  %mul7 = fmul double %div4, %add
  store double %mul7, ptr %D2alphaDforward2, align 8, !tbaa !9
  call void @llvm.lifetime.start.p0(i64 8, ptr %D2betaDforward2) #19
  %10 = load double, ptr %DbetaDforward, align 8, !tbaa !9
  %fneg8 = fneg double %10
  %forward_9 = getelementptr inbounds nuw %"class.QuantLib::BlackCalculator", ptr %this1, i32 0, i32 2
  %11 = load double, ptr %forward_9, align 8, !tbaa !13
  %div10 = fdiv double %fneg8, %11
  %d2_ = getelementptr inbounds nuw %"class.QuantLib::BlackCalculator", ptr %this1, i32 0, i32 7
  %12 = load double, ptr %d2_, align 8, !tbaa !26
  %stdDev_11 = getelementptr inbounds nuw %"class.QuantLib::BlackCalculator", ptr %this1, i32 0, i32 3
  %13 = load double, ptr %stdDev_11, align 8, !tbaa !14
  %div12 = fdiv double %12, %13
  %add13 = fadd double 1.000000e+00, %div12
  %mul14 = fmul double %div10, %add13
  store double %mul14, ptr %D2betaDforward2, align 8, !tbaa !9
  call void @llvm.lifetime.start.p0(i64 8, ptr %temp2) #19
  %14 = load double, ptr %D2alphaDforward2, align 8, !tbaa !9
  %forward_15 = getelementptr inbounds nuw %"class.QuantLib::BlackCalculator", ptr %this1, i32 0, i32 2
  %15 = load double, ptr %forward_15, align 8, !tbaa !13
  %16 = load double, ptr %DalphaDforward, align 8, !tbaa !9
  %mul17 = fmul double 2.000000e+00, %16
  %17 = call double @llvm.fmuladd.f64(double %14, double %15, double %mul17)
  %18 = load double, ptr %D2betaDforward2, align 8, !tbaa !9
  %x_ = getelementptr inbounds nuw %"class.QuantLib::BlackCalculator", ptr %this1, i32 0, i32 16
  %19 = load double, ptr %x_, align 8, !tbaa !33
  %20 = call double @llvm.fmuladd.f64(double %18, double %19, double %17)
  store double %20, ptr %temp2, align 8, !tbaa !9
  %discount_ = getelementptr inbounds nuw %"class.QuantLib::BlackCalculator", ptr %this1, i32 0, i32 4
  %21 = load double, ptr %discount_, align 8, !tbaa !15
  %22 = load double, ptr %temp2, align 8, !tbaa !9
  %mul19 = fmul double %21, %22
  call void @llvm.lifetime.end.p0(i64 8, ptr %temp2) #19
  call void @llvm.lifetime.end.p0(i64 8, ptr %D2betaDforward2) #19
  call void @llvm.lifetime.end.p0(i64 8, ptr %D2alphaDforward2) #19
  call void @llvm.lifetime.end.p0(i64 8, ptr %DbetaDforward) #19
  call void @llvm.lifetime.end.p0(i64 8, ptr %DalphaDforward) #19
  call void @llvm.lifetime.end.p0(i64 8, ptr %temp) #19
  ret double %mul19
}