; Function Attrs: mustprogress nofree norecurse nosync nounwind willreturn memory(argmem: read) uwtable
define noundef double @_ZNK8QuantLib15BlackCalculator12gammaForwardEv(ptr nocapture noundef nonnull readonly align 8 dereferenceable(152) %this) local_unnamed_addr #17 align 2 {
entry:
  %stdDev_ = getelementptr inbounds nuw i8, ptr %this, i64 24
  %0 = load double, ptr %stdDev_, align 8, !tbaa !30
  %forward_ = getelementptr inbounds nuw i8, ptr %this, i64 16
  %1 = load double, ptr %forward_, align 8, !tbaa !29
  %mul = fmul double %0, %1
  %DalphaDd1_ = getelementptr inbounds nuw i8, ptr %this, i64 80
  %2 = load double, ptr %DalphaDd1_, align 8, !tbaa !56
  %div = fdiv double %2, %mul
  %DbetaDd2_ = getelementptr inbounds nuw i8, ptr %this, i64 88
  %3 = load double, ptr %DbetaDd2_, align 8, !tbaa !58
  %fneg = fneg double %div
  %div4 = fdiv double %fneg, %1
  %d1_ = getelementptr inbounds nuw i8, ptr %this, i64 48
  %4 = load double, ptr %d1_, align 8, !tbaa !33
  %div6 = fdiv double %4, %0
  %add = fadd double %div6, 1.000000e+00
  %mul7 = fmul double %div4, %add
  %5 = fneg double %3
  %fneg8 = fdiv double %5, %mul
  %div10 = fdiv double %fneg8, %1
  %d2_ = getelementptr inbounds nuw i8, ptr %this, i64 56
  %6 = load double, ptr %d2_, align 8, !tbaa !34
  %div12 = fdiv double %6, %0
  %add13 = fadd double %div12, 1.000000e+00
  %mul14 = fmul double %div10, %add13
  %mul17 = fmul double %div, 2.000000e+00
  %7 = tail call double @llvm.fmuladd.f64(double %mul7, double %1, double %mul17)
  %x_ = getelementptr inbounds nuw i8, ptr %this, i64 128
  %8 = load double, ptr %x_, align 8, !tbaa !51
  %9 = tail call double @llvm.fmuladd.f64(double %mul14, double %8, double %7)
  %discount_ = getelementptr inbounds nuw i8, ptr %this, i64 32
  %10 = load double, ptr %discount_, align 8, !tbaa !31
  %mul19 = fmul double %10, %9
  ret double %mul19
}